target datalayout = "e-m:e-p270:32:32-p271:32:32-p272:64:64-i64:64-i128:128-f80:128-n8:16:32:64-S128"
target triple = "x86_64-pc-linux-gnu"

%struct._address = type { i32, i32, ptr, ptr }
%struct.lbttcp_tag_entry_t = type { ptr, i32, i32, i32, i32, i32, i32 }
%struct._packet_info = type { ptr, ptr, i32, i32, %struct.nstime_t, %struct.nstime_t, %struct.nstime_t, i8, ptr, ptr, ptr, ptr, %struct._address, %struct._address, %struct._address, %struct._address, %struct._address, %struct._address, i32, ptr, i8, [3 x i8], %struct.anon.1, i32, i32, i32, i32, ptr, i8, ptr, ptr, i16, i16, i32, i32, i16, i32, i32, ptr, ptr, ptr, i8, i8, i16, i16, i16, i32, i16, i16, ptr, ptr, ptr, ptr, ptr, i32, i32 }
%struct.nstime_t = type { i64, i32 }
%struct.anon.1 = type { i8, [3 x i8] }

@.str.11 = private unnamed_addr constant [8 x i8] c"LBT-TCP\00", align 1
@lbttcp_tag_entry = internal global ptr null, align 8
@lbttcp_tag_count = internal global i32 0, align 4
@lbttcp_use_tag = internal global i8 0, align 1
@.str.44 = private unnamed_addr constant [10 x i8] c"[Tag: %s]\00", align 1

; Function Attrs: nounwind null_pointer_is_valid sspstrong uwtable
define internal ptr @lbttcp_tag_locate(ptr noundef %0) #7 {
  %2 = alloca ptr, align 8
  %3 = alloca ptr, align 8
  %4 = alloca i32, align 4
  %5 = alloca ptr, align 8
  %6 = alloca i32, align 4
  store ptr %0, ptr %3, align 8
  call void @llvm.lifetime.start.p0(i64 4, ptr %4) #9
  call void @llvm.lifetime.start.p0(i64 8, ptr %5) #9
  store ptr null, ptr %5, align 8
  %7 = load i8, ptr @lbttcp_use_tag, align 1, !range !6, !noundef !7
  %8 = trunc i8 %7 to i1
  br i1 %8, label %10, label %9

9:                                                ; preds = %1
  store ptr null, ptr %2, align 8
  store i32 1, ptr %6, align 4
  br label %122

10:                                               ; preds = %1
  store i32 0, ptr %4, align 4
  br label %11

11:                                               ; preds = %118, %10
  %12 = load i32, ptr %4, align 4
  %13 = load i32, ptr @lbttcp_tag_count, align 4
  %14 = icmp ult i32 %12, %13
  br i1 %14, label %15, label %121

15:                                               ; preds = %11
  %16 = load ptr, ptr @lbttcp_tag_entry, align 8
  %17 = load i32, ptr %4, align 4
  %18 = zext i32 %17 to i64
  %19 = getelementptr %struct.lbttcp_tag_entry_t, ptr %16, i64 %18
  store ptr %19, ptr %5, align 8
  %20 = load ptr, ptr %3, align 8
  %21 = getelementptr inbounds nuw %struct._packet_info, ptr %20, i32 0, i32 24
  %22 = load i32, ptr %21, align 4
  %23 = load ptr, ptr %5, align 8
  %24 = getelementptr inbounds nuw %struct.lbttcp_tag_entry_t, ptr %23, i32 0, i32 1
  %25 = load i32, ptr %24, align 8
  %26 = icmp uge i32 %22, %25
  br i1 %26, label %27, label %35

27:                                               ; preds = %15
  %28 = load ptr, ptr %3, align 8
  %29 = getelementptr inbounds nuw %struct._packet_info, ptr %28, i32 0, i32 24
  %30 = load i32, ptr %29, align 4
  %31 = load ptr, ptr %5, align 8
  %32 = getelementptr inbounds nuw %struct.lbttcp_tag_entry_t, ptr %31, i32 0, i32 2
  %33 = load i32, ptr %32, align 4
  %34 = icmp ule i32 %30, %33
  br i1 %34, label %115, label %35

35:                                               ; preds = %27, %15
  %36 = load ptr, ptr %3, align 8
  %37 = getelementptr inbounds nuw %struct._packet_info, ptr %36, i32 0, i32 25
  %38 = load i32, ptr %37, align 8
  %39 = load ptr, ptr %5, align 8
  %40 = getelementptr inbounds nuw %struct.lbttcp_tag_entry_t, ptr %39, i32 0, i32 1
  %41 = load i32, ptr %40, align 8
  %42 = icmp uge i32 %38, %41
  br i1 %42, label %43, label %51

43:                                               ; preds = %35
  %44 = load ptr, ptr %3, align 8
  %45 = getelementptr inbounds nuw %struct._packet_info, ptr %44, i32 0, i32 25
  %46 = load i32, ptr %45, align 8
  %47 = load ptr, ptr %5, align 8
  %48 = getelementptr inbounds nuw %struct.lbttcp_tag_entry_t, ptr %47, i32 0, i32 2
  %49 = load i32, ptr %48, align 4
  %50 = icmp ule i32 %46, %49
  br i1 %50, label %115, label %51

51:                                               ; preds = %43, %35
  %52 = load ptr, ptr %3, align 8
  %53 = getelementptr inbounds nuw %struct._packet_info, ptr %52, i32 0, i32 24
  %54 = load i32, ptr %53, align 4
  %55 = load ptr, ptr %5, align 8
  %56 = getelementptr inbounds nuw %struct.lbttcp_tag_entry_t, ptr %55, i32 0, i32 3
  %57 = load i32, ptr %56, align 8
  %58 = icmp uge i32 %54, %57
  br i1 %58, label %59, label %67

59:                                               ; preds = %51
  %60 = load ptr, ptr %3, align 8
  %61 = getelementptr inbounds nuw %struct._packet_info, ptr %60, i32 0, i32 24
  %62 = load i32, ptr %61, align 4
  %63 = load ptr, ptr %5, align 8
  %64 = getelementptr inbounds nuw %struct.lbttcp_tag_entry_t, ptr %63, i32 0, i32 4
  %65 = load i32, ptr %64, align 4
  %66 = icmp ule i32 %62, %65
  br i1 %66, label %115, label %67

67:                                               ; preds = %59, %51
  %68 = load ptr, ptr %3, align 8
  %69 = getelementptr inbounds nuw %struct._packet_info, ptr %68, i32 0, i32 25
  %70 = load i32, ptr %69, align 8
  %71 = load ptr, ptr %5, align 8
  %72 = getelementptr inbounds nuw %struct.lbttcp_tag_entry_t, ptr %71, i32 0, i32 3
  %73 = load i32, ptr %72, align 8
  %74 = icmp uge i32 %70, %73
  br i1 %74, label %75, label %83

75:                                               ; preds = %67
  %76 = load ptr, ptr %3, align 8
  %77 = getelementptr inbounds nuw %struct._packet_info, ptr %76, i32 0, i32 25
  %78 = load i32, ptr %77, align 8
  %79 = load ptr, ptr %5, align 8
  %80 = getelementptr inbounds nuw %struct.lbttcp_tag_entry_t, ptr %79, i32 0, i32 4
  %81 = load i32, ptr %80, align 4
  %82 = icmp ule i32 %78, %81
  br i1 %82, label %115, label %83

83:                                               ; preds = %75, %67
  %84 = load ptr, ptr %3, align 8
  %85 = getelementptr inbounds nuw %struct._packet_info, ptr %84, i32 0, i32 24
  %86 = load i32, ptr %85, align 4
  %87 = load ptr, ptr %5, align 8
  %88 = getelementptr inbounds nuw %struct.lbttcp_tag_entry_t, ptr %87, i32 0, i32 5
  %89 = load i32, ptr %88, align 8
  %90 = icmp uge i32 %86, %89
  br i1 %90, label %91, label %99

91:                                               ; preds = %83
  %92 = load ptr, ptr %3, align 8
  %93 = getelementptr inbounds nuw %struct._packet_info, ptr %92, i32 0, i32 24
  %94 = load i32, ptr %93, align 4
  %95 = load ptr, ptr %5, align 8
  %96 = getelementptr inbounds nuw %struct.lbttcp_tag_entry_t, ptr %95, i32 0, i32 6
  %97 = load i32, ptr %96, align 4
  %98 = icmp ule i32 %94, %97
  br i1 %98, label %115, label %99

99:                                               ; preds = %91, %83
  %100 = load ptr, ptr %3, align 8
  %101 = getelementptr inbounds nuw %struct._packet_info, ptr %100, i32 0, i32 25
  %102 = load i32, ptr %101, align 8
  %103 = load ptr, ptr %5, align 8
  %104 = getelementptr inbounds nuw %struct.lbttcp_tag_entry_t, ptr %103, i32 0, i32 5
  %105 = load i32, ptr %104, align 8
  %106 = icmp uge i32 %102, %105
  br i1 %106, label %107, label %117

107:                                              ; preds = %99
  %108 = load ptr, ptr %3, align 8
  %109 = getelementptr inbounds nuw %struct._packet_info, ptr %108, i32 0, i32 25
  %110 = load i32, ptr %109, align 8
  %111 = load ptr, ptr %5, align 8
  %112 = getelementptr inbounds nuw %struct.lbttcp_tag_entry_t, ptr %111, i32 0, i32 6
  %113 = load i32, ptr %112, align 4
  %114 = icmp ule i32 %110, %113
  br i1 %114, label %115, label %117

115:                                              ; preds = %107, %91, %75, %59, %43, %27
  %116 = load ptr, ptr %5, align 8
  store ptr %116, ptr %2, align 8
  store i32 1, ptr %6, align 4
  br label %122

117:                                              ; preds = %107, %99
  br label %118

118:                                              ; preds = %117
  %119 = load i32, ptr %4, align 4
  %120 = add i32 %119, 1
  store i32 %120, ptr %4, align 4
  br label %11, !llvm.loop !8

121:                                              ; preds = %11
  store ptr null, ptr %2, align 8
  store i32 1, ptr %6, align 4
  br label %122

122:                                              ; preds = %121, %115, %9
  call void @llvm.lifetime.end.p0(i64 8, ptr %5) #9
  call void @llvm.lifetime.end.p0(i64 4, ptr %4) #9
  %123 = load ptr, ptr %2, align 8
  ret ptr %123
}

; Function Attrs: null_pointer_is_valid sspstrong uwtable
define internal ptr @lbttcp_tag_find(ptr noundef %0) #0 {
  %2 = alloca ptr, align 8
  %3 = alloca ptr, align 8
  %4 = alloca ptr, align 8
  %5 = alloca i32, align 4
  store ptr %0, ptr %3, align 8
  call void @llvm.lifetime.start.p0(i64 8, ptr %4) #9
  store ptr null, ptr %4, align 8
  %6 = load i8, ptr @lbttcp_use_tag, align 1, !range !6, !noundef !7
  %7 = trunc i8 %6 to i1
  br i1 %7, label %9, label %8

8:                                                ; preds = %1
  store ptr null, ptr %2, align 8
  store i32 1, ptr %5, align 4
  br label %19

9:                                                ; preds = %1
  %10 = load ptr, ptr %3, align 8
  %11 = call ptr @lbttcp_tag_locate(ptr noundef %10)
  store ptr %11, ptr %4, align 8
  %12 = load ptr, ptr %4, align 8
  %13 = icmp ne ptr %12, null
  br i1 %13, label %14, label %18

14:                                               ; preds = %9
  %15 = load ptr, ptr %4, align 8
  %16 = getelementptr inbounds nuw %struct.lbttcp_tag_entry_t, ptr %15, i32 0, i32 0
  %17 = load ptr, ptr %16, align 8
  store ptr %17, ptr %2, align 8
  store i32 1, ptr %5, align 4
  br label %19

18:                                               ; preds = %9
  store ptr null, ptr %2, align 8
  store i32 1, ptr %5, align 4
  br label %19

19:                                               ; preds = %18, %14, %8
  call void @llvm.lifetime.end.p0(i64 8, ptr %4) #9
  %20 = load ptr, ptr %2, align 8
  ret ptr %20
}

; Function Attrs: null_pointer_is_valid sspstrong uwtable
define internal i32 @dissect_lbttcp_real(ptr noundef %0, ptr noundef %1, ptr noundef %2, ptr noundef %3) #0 {
  %5 = alloca ptr, align 8
  %6 = alloca ptr, align 8
  %7 = alloca ptr, align 8
  %8 = alloca ptr, align 8
  %9 = alloca ptr, align 8
  store ptr %0, ptr %5, align 8
  store ptr %1, ptr %6, align 8
  store ptr %2, ptr %7, align 8
  store ptr %3, ptr %8, align 8
  call void @llvm.lifetime.start.p0(i64 8, ptr %9) #9
  store ptr null, ptr %9, align 8
  %10 = load ptr, ptr %6, align 8
  %11 = getelementptr inbounds nuw %struct._packet_info, ptr %10, i32 0, i32 1
  %12 = load ptr, ptr %11, align 8
  call void @col_set_str(ptr noundef %12, i32 noundef 35, ptr noundef @.str.11)
  %13 = load ptr, ptr %6, align 8
  %14 = getelementptr inbounds nuw %struct._packet_info, ptr %13, i32 0, i32 1
  %15 = load ptr, ptr %14, align 8
  call void @col_clear(ptr noundef %15, i32 noundef 25)
  %16 = load i8, ptr @lbttcp_use_tag, align 1, !range !6, !noundef !7
  %17 = trunc i8 %16 to i1
  br i1 %17, label %18, label %21

18:                                               ; preds = %4
  %19 = load ptr, ptr %6, align 8
  %20 = call ptr @lbttcp_tag_find(ptr noundef %19)
  store ptr %20, ptr %9, align 8
  br label %21

21:                                               ; preds = %18, %4
  %22 = load ptr, ptr %9, align 8
  %23 = icmp ne ptr %22, null
  br i1 %23, label %24, label %29

24:                                               ; preds = %21
  %25 = load ptr, ptr %6, align 8
  %26 = getelementptr inbounds nuw %struct._packet_info, ptr %25, i32 0, i32 1
  %27 = load ptr, ptr %26, align 8
  %28 = load ptr, ptr %9, align 8
  call void (ptr, i32, ptr, ...) @col_add_fstr(ptr noundef %27, i32 noundef 25, ptr noundef @.str.44, ptr noundef %28)
  br label %29

29:                                               ; preds = %24, %21
  %30 = load ptr, ptr %6, align 8
  %31 = getelementptr inbounds nuw %struct._packet_info, ptr %30, i32 0, i32 1
  %32 = load ptr, ptr %31, align 8
  call void @col_set_fence(ptr noundef %32, i32 noundef 25)
  %33 = load ptr, ptr %5, align 8
  %34 = load ptr, ptr %6, align 8
  %35 = load ptr, ptr %7, align 8
  %36 = call i32 @lbmc_get_minimum_length()
  call void @tcp_dissect_pdus(ptr noundef %33, ptr noundef %34, ptr noundef %35, i1 noundef zeroext true, i32 noundef %36, ptr noundef @get_lbttcp_pdu_length, ptr noundef @dissect_lbttcp_pdu, ptr noundef null)
  %37 = load ptr, ptr %5, align 8
  %38 = call i32 @tvb_captured_length(ptr noundef %37)
  call void @llvm.lifetime.end.p0(i64 8, ptr %9) #9
  ret i32 %38
}