; Function Attrs: null_pointer_is_valid sspstrong uwtable
define internal fastcc i32 @dissect_lbttcp_real(ptr noundef %0, ptr noundef %1, ptr noundef %2) unnamed_addr #0 {
  %4 = getelementptr inbounds nuw i8, ptr %1, i64 8
  %5 = load ptr, ptr %4, align 8
  tail call void @col_set_str(ptr noundef %5, i32 noundef 35, ptr noundef nonnull @.str.11)
  %6 = load ptr, ptr %4, align 8
  tail call void @col_clear(ptr noundef %6, i32 noundef 25)
  %7 = load i8, ptr @lbttcp_use_tag, align 1, !range !6, !noundef !7
  %8 = trunc nuw i8 %7 to i1
  br i1 %8, label %.preheader.i.i, label %lbttcp_tag_find.exit.thread

.preheader.i.i:                                   ; preds = %3
  %9 = load i32, ptr @lbttcp_tag_count, align 4
  %.not59.i.i = icmp eq i32 %9, 0
  br i1 %.not59.i.i, label %lbttcp_tag_find.exit.thread, label %.lr.ph.i.i

.lr.ph.i.i:                                       ; preds = %.preheader.i.i
  %10 = load ptr, ptr @lbttcp_tag_entry, align 8
  %11 = getelementptr inbounds nuw i8, ptr %1, i64 284
  %12 = load i32, ptr %11, align 4
  %13 = getelementptr inbounds nuw i8, ptr %1, i64 288
  %wide.trip.count.i.i = zext i32 %9 to i64
  br label %14

14:                                               ; preds = %46, %.lr.ph.i.i
  %indvars.iv.i.i = phi i64 [ 0, %.lr.ph.i.i ], [ %indvars.iv.next.i.i, %46 ]
  %15 = getelementptr %struct.lbttcp_tag_entry_t, ptr %10, i64 %indvars.iv.i.i
  %16 = getelementptr inbounds nuw i8, ptr %15, i64 8
  %17 = load i32, ptr %16, align 8
  %.not.i.i = icmp ult i32 %12, %17
  br i1 %.not.i.i, label %21, label %18

18:                                               ; preds = %14
  %19 = getelementptr inbounds nuw i8, ptr %15, i64 12
  %20 = load i32, ptr %19, align 4
  %.not35.i.i = icmp ugt i32 %12, %20
  br i1 %.not35.i.i, label %21, label %lbttcp_tag_locate.exit.i

21:                                               ; preds = %18, %14
  %22 = load i32, ptr %13, align 8
  %.not36.i.i = icmp ult i32 %22, %17
  br i1 %.not36.i.i, label %26, label %23

23:                                               ; preds = %21
  %24 = getelementptr inbounds nuw i8, ptr %15, i64 12
  %25 = load i32, ptr %24, align 4
  %.not37.i.i = icmp ugt i32 %22, %25
  br i1 %.not37.i.i, label %26, label %lbttcp_tag_locate.exit.i

26:                                               ; preds = %23, %21
  %27 = getelementptr inbounds nuw i8, ptr %15, i64 16
  %28 = load i32, ptr %27, align 8
  %.not38.i.i = icmp ult i32 %12, %28
  br i1 %.not38.i.i, label %32, label %29

29:                                               ; preds = %26
  %30 = getelementptr inbounds nuw i8, ptr %15, i64 20
  %31 = load i32, ptr %30, align 4
  %.not39.i.i = icmp ugt i32 %12, %31
  br i1 %.not39.i.i, label %32, label %lbttcp_tag_locate.exit.i

32:                                               ; preds = %29, %26
  %.not40.i.i = icmp ult i32 %22, %28
  br i1 %.not40.i.i, label %36, label %33

33:                                               ; preds = %32
  %34 = getelementptr inbounds nuw i8, ptr %15, i64 20
  %35 = load i32, ptr %34, align 4
  %.not41.i.i = icmp ugt i32 %22, %35
  br i1 %.not41.i.i, label %36, label %lbttcp_tag_locate.exit.i

36:                                               ; preds = %33, %32
  %37 = getelementptr inbounds nuw i8, ptr %15, i64 24
  %38 = load i32, ptr %37, align 8
  %.not42.i.i = icmp ult i32 %12, %38
  br i1 %.not42.i.i, label %42, label %39

39:                                               ; preds = %36
  %40 = getelementptr inbounds nuw i8, ptr %15, i64 28
  %41 = load i32, ptr %40, align 4
  %.not43.i.i = icmp ugt i32 %12, %41
  br i1 %.not43.i.i, label %42, label %lbttcp_tag_locate.exit.i

42:                                               ; preds = %39, %36
  %.not44.i.i = icmp ult i32 %22, %38
  br i1 %.not44.i.i, label %46, label %43

43:                                               ; preds = %42
  %44 = getelementptr inbounds nuw i8, ptr %15, i64 28
  %45 = load i32, ptr %44, align 4
  %.not45.i.i = icmp ugt i32 %22, %45
  br i1 %.not45.i.i, label %46, label %lbttcp_tag_locate.exit.i

46:                                               ; preds = %43, %42
  %indvars.iv.next.i.i = add nuw nsw i64 %indvars.iv.i.i, 1
  %exitcond.not.i.i = icmp eq i64 %indvars.iv.next.i.i, %wide.trip.count.i.i
  br i1 %exitcond.not.i.i, label %lbttcp_tag_find.exit.thread, label %14, !llvm.loop !8

lbttcp_tag_locate.exit.i:                         ; preds = %43, %39, %33, %29, %23, %18
  %.not.i = icmp eq ptr %15, null
  br i1 %.not.i, label %lbttcp_tag_find.exit.thread, label %lbttcp_tag_find.exit

lbttcp_tag_find.exit:                             ; preds = %lbttcp_tag_locate.exit.i
  %47 = load ptr, ptr %15, align 8
  %.not = icmp eq ptr %47, null
  br i1 %.not, label %lbttcp_tag_find.exit.thread, label %48

48:                                               ; preds = %lbttcp_tag_find.exit
  %49 = load ptr, ptr %4, align 8
  tail call void (ptr, i32, ptr, ...) @col_add_fstr(ptr noundef %49, i32 noundef 25, ptr noundef nonnull @.str.44, ptr noundef nonnull %47)
  br label %lbttcp_tag_find.exit.thread

lbttcp_tag_find.exit.thread:                      ; preds = %46, %.preheader.i.i, %lbttcp_tag_locate.exit.i, %3, %48, %lbttcp_tag_find.exit
  %50 = load ptr, ptr %4, align 8
  tail call void @col_set_fence(ptr noundef %50, i32 noundef 25)
  %51 = tail call i32 @lbmc_get_minimum_length()
  tail call void @tcp_dissect_pdus(ptr noundef %0, ptr noundef %1, ptr noundef %2, i1 noundef zeroext true, i32 noundef %51, ptr noundef nonnull @get_lbttcp_pdu_length, ptr noundef nonnull @dissect_lbttcp_pdu, ptr noundef null)
  %52 = tail call i32 @tvb_captured_length(ptr noundef %0)
  ret i32 %52
}